; Function Attrs: mustprogress nofree norecurse nosync nounwind sspstrong willreturn memory(read, inaccessiblemem: none) uwtable
define dso_local range(i32 0, 3) i32 @sas_ss_flags(i64 noundef %sp) local_unnamed_addr #7 {
entry:
  %0 = tail call align 8 ptr @llvm.threadlocal.address.p0(ptr align 8 @thread_cpu)
  %1 = load ptr, ptr %0, align 8
  %opaque = getelementptr inbounds nuw i8, ptr %1, i64 624
  %2 = load ptr, ptr %opaque, align 16
  %ss_size = getelementptr inbounds nuw i8, ptr %2, i64 9184
  %3 = load i64, ptr %ss_size, align 8
  %cmp = icmp eq i64 %3, 0
  br i1 %cmp, label %cond.end, label %cond.false

cond.false:                                       ; preds = %entry
  %sigaltstack_used.i = getelementptr inbounds nuw i8, ptr %2, i64 9168
  %4 = load i64, ptr %sigaltstack_used.i, align 8
  %sub.i = sub i64 %sp, %4
  %cmp.i = icmp ult i64 %sub.i, %3
  %conv.i = zext i1 %cmp.i to i32
  br label %cond.end

cond.end:                                         ; preds = %entry, %cond.false
  %cond1 = phi i32 [ %conv.i, %cond.false ], [ 2, %entry ]
  ret i32 %cond1
}